; Function Attrs: mustprogress uwtable
define noundef zeroext i1 @_ZN10StringList10GetStringAEPcm(ptr nocapture noundef nonnull align 8 dereferenceable(184) %0, ptr noundef %1, i64 noundef %2) local_unnamed_addr #2 align 2 personality ptr @__gxx_personality_v0 {
  %.not.i = icmp eq i64 %2, 0
  br i1 %.not.i, label %_ZN5ArrayIwEC2Em.exit, label %4

4:                                                ; preds = %3
  %..i.i = tail call i64 @llvm.umax.i64(i64 %2, i64 32)
  %5 = shl i64 %..i.i, 2
  %malloc.i = tail call ptr @malloc(i64 %5)
  %6 = icmp eq ptr %malloc.i, null
  br i1 %6, label %7, label %_ZN5ArrayIwEC2Em.exit

7:                                                ; preds = %4
  tail call void @_ZN12ErrorHandler11MemoryErrorEv(ptr noundef nonnull align 4 dereferenceable(14) @ErrHandler)
  br label %_ZN5ArrayIwEC2Em.exit

_ZN5ArrayIwEC2Em.exit:                            ; preds = %4, %7, %3
  %.sroa.0.0 = phi ptr [ null, %3 ], [ null, %7 ], [ %malloc.i, %4 ]
  %8 = getelementptr inbounds i8, ptr %0, i64 32
  %9 = load i64, ptr %8, align 8
  %10 = getelementptr inbounds i8, ptr %0, i64 8
  %11 = load i64, ptr %10, align 8
  %.not.i.i = icmp ult i64 %9, %11
  br i1 %.not.i.i, label %12, label %_ZN10StringList9GetStringEPwm.exit

12:                                               ; preds = %_ZN5ArrayIwEC2Em.exit
  %13 = load ptr, ptr %0, align 8
  %14 = getelementptr inbounds i32, ptr %13, i64 %9
  %15 = tail call i64 @wcslen(ptr noundef nonnull %14) #15
  %16 = add nuw i64 %9, 1
  %17 = add i64 %16, %15
  store i64 %17, ptr %8, align 8
  invoke void @_Z8wcsncpyzPwPKwm(ptr noundef %.sroa.0.0, ptr noundef %14, i64 noundef %2)
          to label %21 unwind label %18

18:                                               ; preds = %12, %21
  %19 = landingpad { ptr, i32 }
          cleanup
  %.not.i6 = icmp eq ptr %.sroa.0.0, null
  br i1 %.not.i6, label %_ZN5ArrayIwED2Ev.exit, label %20

20:                                               ; preds = %18
  tail call void @free(ptr noundef nonnull %.sroa.0.0) #14
  br label %_ZN5ArrayIwED2Ev.exit

_ZN5ArrayIwED2Ev.exit:                            ; preds = %18, %20
  resume { ptr, i32 } %19

21:                                               ; preds = %12
  %22 = invoke noundef zeroext i1 @_Z10WideToCharPKwPcm(ptr noundef nonnull %.sroa.0.0, ptr noundef %1, i64 noundef %2)
          to label %_ZN10StringList9GetStringEPwm.exit unwind label %18

_ZN10StringList9GetStringEPwm.exit:               ; preds = %_ZN5ArrayIwEC2Em.exit, %21
  %.not.i7 = icmp eq ptr %.sroa.0.0, null
  br i1 %.not.i7, label %_ZN5ArrayIwED2Ev.exit8, label %23

23:                                               ; preds = %_ZN10StringList9GetStringEPwm.exit
  tail call void @free(ptr noundef nonnull %.sroa.0.0) #14
  br label %_ZN5ArrayIwED2Ev.exit8

_ZN5ArrayIwED2Ev.exit8:                           ; preds = %_ZN10StringList9GetStringEPwm.exit, %23
  ret i1 %.not.i.i
}